; ModuleID = '32/403.c'
source_filename = "32/403.c"
target datalayout = "e-m:e-p270:32:32-p271:32:32-p272:64:64-i64:64-f80:128-n8:16:32:64-S128"
target triple = "x86_64-pc-linux-gnu"

@.str = private unnamed_addr constant [3 x i8] c"%d\00", align 1
@.str.1 = private unnamed_addr constant [3 x i8] c"%s\00", align 1
@.str.2 = private unnamed_addr constant [3 x i8] c"%c\00", align 1
@.str.3 = private unnamed_addr constant [2 x i8] c"\0A\00", align 1
@.str.4 = private unnamed_addr constant [3 x i8] c"0\0A\00", align 1

; Function Attrs: noinline nounwind uwtable
define dso_local i32 @main() #0 {
  %1 = alloca i32, align 4
  %2 = alloca i32, align 4
  %3 = alloca i32, align 4
  %4 = alloca i32, align 4
  %5 = alloca i32, align 4
  %6 = alloca i32, align 4
  %7 = alloca i32, align 4
  %8 = alloca i32, align 4
  %9 = alloca i32, align 4
  %10 = alloca i32, align 4
  %11 = alloca [1000 x i8], align 16
  %12 = alloca [1000 x i8], align 16
  %13 = alloca [1000 x i8], align 16
  store i32 0, i32* %1, align 4
  store i32 1, i32* %10, align 4
  %14 = bitcast [1000 x i8]* %11 to i8*
  call void @llvm.memset.p0i8.i64(i8* align 16 %14, i8 0, i64 1000, i1 false)
  %15 = bitcast [1000 x i8]* %12 to i8*
  call void @llvm.memset.p0i8.i64(i8* align 16 %15, i8 0, i64 1000, i1 false)
  %16 = bitcast [1000 x i8]* %13 to i8*
  call void @llvm.memset.p0i8.i64(i8* align 16 %16, i8 0, i64 1000, i1 false)
  %17 = call i32 (i8*, ...) @__isoc99_scanf(i8* getelementptr inbounds ([3 x i8], [3 x i8]* @.str, i64 0, i64 0), i32* %2)
  store i32 1, i32* %3, align 4
  br label %18

18:                                               ; preds = %159, %0
  %19 = load i32, i32* %3, align 4
  %20 = load i32, i32* %2, align 4
  %21 = icmp sle i32 %19, %20
  br i1 %21, label %22, label %162

22:                                               ; preds = %18
  %23 = getelementptr inbounds [1000 x i8], [1000 x i8]* %11, i64 0, i64 0
  %24 = call i32 (i8*, ...) @__isoc99_scanf(i8* getelementptr inbounds ([3 x i8], [3 x i8]* @.str.1, i64 0, i64 0), i8* %23)
  %25 = getelementptr inbounds [1000 x i8], [1000 x i8]* %12, i64 0, i64 0
  %26 = call i32 (i8*, ...) @__isoc99_scanf(i8* getelementptr inbounds ([3 x i8], [3 x i8]* @.str.1, i64 0, i64 0), i8* %25)
  %27 = getelementptr inbounds [1000 x i8], [1000 x i8]* %11, i64 0, i64 0
  %28 = call i64 @strlen(i8* %27) #4
  %29 = trunc i64 %28 to i32
  store i32 %29, i32* %6, align 4
  %30 = getelementptr inbounds [1000 x i8], [1000 x i8]* %12, i64 0, i64 0
  %31 = call i64 @strlen(i8* %30) #4
  %32 = trunc i64 %31 to i32
  store i32 %32, i32* %7, align 4
  %33 = load i32, i32* %7, align 4
  store i32 %33, i32* %5, align 4
  %34 = load i32, i32* %6, align 4
  store i32 %34, i32* %4, align 4
  %35 = load i32, i32* %7, align 4
  store i32 %35, i32* %5, align 4
  br label %36

36:                                               ; preds = %114, %22
  %37 = load i32, i32* %4, align 4
  %38 = icmp sge i32 %37, 0
  br i1 %38, label %39, label %119

39:                                               ; preds = %36
  %40 = load i32, i32* %5, align 4
  %41 = icmp slt i32 %40, 0
  br i1 %41, label %42, label %50

42:                                               ; preds = %39
  %43 = load i32, i32* %4, align 4
  %44 = sext i32 %43 to i64
  %45 = getelementptr inbounds [1000 x i8], [1000 x i8]* %11, i64 0, i64 %44
  %46 = load i8, i8* %45, align 1
  %47 = load i32, i32* %4, align 4
  %48 = sext i32 %47 to i64
  %49 = getelementptr inbounds [1000 x i8], [1000 x i8]* %13, i64 0, i64 %48
  store i8 %46, i8* %49, align 1
  br label %113

50:                                               ; preds = %39
  %51 = load i32, i32* %4, align 4
  %52 = sext i32 %51 to i64
  %53 = getelementptr inbounds [1000 x i8], [1000 x i8]* %11, i64 0, i64 %52
  %54 = load i8, i8* %53, align 1
  %55 = sext i8 %54 to i32
  %56 = load i32, i32* %5, align 4
  %57 = sext i32 %56 to i64
  %58 = getelementptr inbounds [1000 x i8], [1000 x i8]* %12, i64 0, i64 %57
  %59 = load i8, i8* %58, align 1
  %60 = sext i8 %59 to i32
  %61 = icmp sge i32 %55, %60
  br i1 %61, label %62, label %79

62:                                               ; preds = %50
  %63 = load i32, i32* %4, align 4
  %64 = sext i32 %63 to i64
  %65 = getelementptr inbounds [1000 x i8], [1000 x i8]* %11, i64 0, i64 %64
  %66 = load i8, i8* %65, align 1
  %67 = sext i8 %66 to i32
  %68 = load i32, i32* %5, align 4
  %69 = sext i32 %68 to i64
  %70 = getelementptr inbounds [1000 x i8], [1000 x i8]* %12, i64 0, i64 %69
  %71 = load i8, i8* %70, align 1
  %72 = sext i8 %71 to i32
  %73 = sub nsw i32 %67, %72
  %74 = add nsw i32 %73, 48
  %75 = trunc i32 %74 to i8
  %76 = load i32, i32* %4, align 4
  %77 = sext i32 %76 to i64
  %78 = getelementptr inbounds [1000 x i8], [1000 x i8]* %13, i64 0, i64 %77
  store i8 %75, i8* %78, align 1
  br label %112

79:                                               ; preds = %50
  %80 = load i32, i32* %4, align 4
  %81 = sext i32 %80 to i64
  %82 = getelementptr inbounds [1000 x i8], [1000 x i8]* %11, i64 0, i64 %81
  %83 = load i8, i8* %82, align 1
  %84 = sext i8 %83 to i32
  %85 = add nsw i32 %84, 10
  %86 = trunc i32 %85 to i8
  %87 = load i32, i32* %4, align 4
  %88 = sext i32 %87 to i64
  %89 = getelementptr inbounds [1000 x i8], [1000 x i8]* %11, i64 0, i64 %88
  store i8 %86, i8* %89, align 1
  %90 = load i32, i32* %4, align 4
  %91 = sub nsw i32 %90, 1
  %92 = sext i32 %91 to i64
  %93 = getelementptr inbounds [1000 x i8], [1000 x i8]* %11, i64 0, i64 %92
  %94 = load i8, i8* %93, align 1
  %95 = add i8 %94, -1
  store i8 %95, i8* %93, align 1
  %96 = load i32, i32* %4, align 4
  %97 = sext i32 %96 to i64
  %98 = getelementptr inbounds [1000 x i8], [1000 x i8]* %11, i64 0, i64 %97
  %99 = load i8, i8* %98, align 1
  %100 = sext i8 %99 to i32
  %101 = load i32, i32* %5, align 4
  %102 = sext i32 %101 to i64
  %103 = getelementptr inbounds [1000 x i8], [1000 x i8]* %12, i64 0, i64 %102
  %104 = load i8, i8* %103, align 1
  %105 = sext i8 %104 to i32
  %106 = sub nsw i32 %100, %105
  %107 = add nsw i32 %106, 48
  %108 = trunc i32 %107 to i8
  %109 = load i32, i32* %4, align 4
  %110 = sext i32 %109 to i64
  %111 = getelementptr inbounds [1000 x i8], [1000 x i8]* %13, i64 0, i64 %110
  store i8 %108, i8* %111, align 1
  br label %112

112:                                              ; preds = %79, %62
  br label %113

113:                                              ; preds = %112, %42
  br label %114

114:                                              ; preds = %113
  %115 = load i32, i32* %4, align 4
  %116 = add nsw i32 %115, -1
  store i32 %116, i32* %4, align 4
  %117 = load i32, i32* %5, align 4
  %118 = add nsw i32 %117, -1
  store i32 %118, i32* %5, align 4
  br label %36

119:                                              ; preds = %36
  store i32 0, i32* %8, align 4
  br label %120

120:                                              ; preds = %150, %119
  %121 = load i32, i32* %8, align 4
  %122 = load i32, i32* %6, align 4
  %123 = icmp slt i32 %121, %122
  br i1 %123, label %124, label %153

124:                                              ; preds = %120
  %125 = load i32, i32* %8, align 4
  %126 = sext i32 %125 to i64
  %127 = getelementptr inbounds [1000 x i8], [1000 x i8]* %13, i64 0, i64 %126
  %128 = load i8, i8* %127, align 1
  %129 = sext i8 %128 to i32
  %130 = icmp ne i32 %129, 0
  br i1 %130, label %131, label %149

131:                                              ; preds = %124
  %132 = load i32, i32* %8, align 4
  store i32 %132, i32* %9, align 4
  br label %133

133:                                              ; preds = %144, %131
  %134 = load i32, i32* %9, align 4
  %135 = load i32, i32* %6, align 4
  %136 = icmp slt i32 %134, %135
  br i1 %136, label %137, label %147

137:                                              ; preds = %133
  %138 = load i32, i32* %9, align 4
  %139 = sext i32 %138 to i64
  %140 = getelementptr inbounds [1000 x i8], [1000 x i8]* %13, i64 0, i64 %139
  %141 = load i8, i8* %140, align 1
  %142 = sext i8 %141 to i32
  %143 = call i32 (i8*, ...) @printf(i8* getelementptr inbounds ([3 x i8], [3 x i8]* @.str.2, i64 0, i64 0), i32 %142)
  br label %144

144:                                              ; preds = %137
  %145 = load i32, i32* %9, align 4
  %146 = add nsw i32 %145, 1
  store i32 %146, i32* %9, align 4
  br label %133

147:                                              ; preds = %133
  %148 = call i32 (i8*, ...) @printf(i8* getelementptr inbounds ([2 x i8], [2 x i8]* @.str.3, i64 0, i64 0))
  store i32 0, i32* %10, align 4
  br label %153

149:                                              ; preds = %124
  br label %150

150:                                              ; preds = %149
  %151 = load i32, i32* %8, align 4
  %152 = add nsw i32 %151, 1
  store i32 %152, i32* %8, align 4
  br label %120

153:                                              ; preds = %147, %120
  %154 = load i32, i32* %10, align 4
  %155 = icmp eq i32 %154, 1
  br i1 %155, label %156, label %158

156:                                              ; preds = %153
  %157 = call i32 (i8*, ...) @printf(i8* getelementptr inbounds ([3 x i8], [3 x i8]* @.str.4, i64 0, i64 0))
  br label %158

158:                                              ; preds = %156, %153
  br label %159

159:                                              ; preds = %158
  %160 = load i32, i32* %3, align 4
  %161 = add nsw i32 %160, 1
  store i32 %161, i32* %3, align 4
  br label %18

162:                                              ; preds = %18
  %163 = load i32, i32* %1, align 4
  ret i32 %163
}

; Function Attrs: argmemonly nounwind willreturn
declare void @llvm.memset.p0i8.i64(i8* nocapture writeonly, i8, i64, i1 immarg) #1

declare dso_local i32 @__isoc99_scanf(i8*, ...) #2

; Function Attrs: nounwind readonly
declare dso_local i64 @strlen(i8*) #3

declare dso_local i32 @printf(i8*, ...) #2


!llvm.module.flags = !{!0}
!llvm.ident = !{!1}

!0 = !{i32 1, !"wchar_size", i32 4}
!1 = !{!"clang version 10.0.0-4ubuntu1 "}
